target datalayout = "e-m:e-p270:32:32-p271:32:32-p272:64:64-i64:64-i128:128-f80:128-n8:16:32:64-S128"
target triple = "x86_64-pc-linux-gnu"

%"class.double_conversion::DoubleToStringConverter" = type { i32, ptr, ptr, i8, i32, i32, i32, i32, i32 }
%"class.double_conversion::Double" = type { i64 }
%"class.double_conversion::StringBuilder" = type { %"class.double_conversion::Vector", i32, [4 x i8] }
%"class.double_conversion::Vector" = type <{ ptr, i32, [4 x i8] }>

; Function Attrs: mustprogress nounwind uwtable
define linkonce_odr noundef i64 @_ZN17double_conversion7BitCastImdEET_RKT0_(ptr noundef nonnull align 8 dereferenceable(8) %0) #3 comdat {
  %2 = alloca ptr, align 8
  %3 = alloca i64, align 8
  store ptr %0, ptr %2, align 8, !tbaa !61
  call void @llvm.lifetime.start.p0(i64 8, ptr %3) #2
  %4 = load ptr, ptr %2, align 8, !tbaa !61
  call void @llvm.memmove.p0.p0.i64(ptr align 8 %3, ptr align 8 %4, i64 8, i1 false)
  %5 = load i64, ptr %3, align 8, !tbaa !33
  call void @llvm.lifetime.end.p0(i64 8, ptr %3) #2
  ret i64 %5
}

; Function Attrs: mustprogress uwtable
define linkonce_odr void @_ZN17double_conversion13StringBuilder12AddSubstringEPKci(ptr noundef nonnull align 8 dereferenceable(20) %0, ptr noundef %1, i32 noundef %2) #0 comdat align 2 {
  %4 = alloca ptr, align 8
  %5 = alloca ptr, align 8
  %6 = alloca i32, align 4
  store ptr %0, ptr %4, align 8, !tbaa !26
  store ptr %1, ptr %5, align 8, !tbaa !11
  store i32 %2, ptr %6, align 4, !tbaa !3
  %7 = load ptr, ptr %4, align 8
  %8 = getelementptr inbounds nuw %"class.double_conversion::StringBuilder", ptr %7, i32 0, i32 0
  %9 = getelementptr inbounds nuw %"class.double_conversion::StringBuilder", ptr %7, i32 0, i32 1
  %10 = load i32, ptr %9, align 8, !tbaa !34
  %11 = call noundef nonnull align 1 dereferenceable(1) ptr @_ZNK17double_conversion6VectorIcEixEi(ptr noundef nonnull align 8 dereferenceable(12) %8, i32 noundef %10)
  %12 = load ptr, ptr %5, align 8, !tbaa !11
  %13 = load i32, ptr %6, align 4, !tbaa !3
  %14 = sext i32 %13 to i64
  call void @llvm.memmove.p0.p0.i64(ptr align 1 %11, ptr align 1 %12, i64 %14, i1 false)
  %15 = load i32, ptr %6, align 4, !tbaa !3
  %16 = getelementptr inbounds nuw %"class.double_conversion::StringBuilder", ptr %7, i32 0, i32 1
  %17 = load i32, ptr %16, align 8, !tbaa !34
  %18 = add nsw i32 %17, %15
  store i32 %18, ptr %16, align 8, !tbaa !34
  ret void
}

; Function Attrs: inlinehint mustprogress nounwind uwtable
define linkonce_odr noundef i32 @_ZN17double_conversion9StrLengthEPKc(ptr noundef %0) #4 comdat {
  %2 = alloca ptr, align 8
  %3 = alloca i64, align 8
  store ptr %0, ptr %2, align 8, !tbaa !11
  call void @llvm.lifetime.start.p0(i64 8, ptr %3) #2
  %4 = load ptr, ptr %2, align 8, !tbaa !11
  %5 = call i64 @strlen(ptr noundef %4) #10
  store i64 %5, ptr %3, align 8, !tbaa !33
  %6 = load i64, ptr %3, align 8, !tbaa !33
  %7 = trunc i64 %6 to i32
  call void @llvm.lifetime.end.p0(i64 8, ptr %3) #2
  ret i32 %7
}

; Function Attrs: mustprogress nounwind uwtable
define linkonce_odr noundef nonnull align 1 dereferenceable(1) ptr @_ZNK17double_conversion6VectorIcEixEi(ptr noundef nonnull align 8 dereferenceable(12) %0, i32 noundef %1) #3 comdat align 2 {
  %3 = alloca ptr, align 8
  %4 = alloca i32, align 4
  store ptr %0, ptr %3, align 8, !tbaa !57
  store i32 %1, ptr %4, align 4, !tbaa !3
  %5 = load ptr, ptr %3, align 8
  %6 = getelementptr inbounds nuw %"class.double_conversion::Vector", ptr %5, i32 0, i32 0
  %7 = load ptr, ptr %6, align 8, !tbaa !59
  %8 = load i32, ptr %4, align 4, !tbaa !3
  %9 = sext i32 %8 to i64
  %10 = getelementptr inbounds i8, ptr %7, i64 %9
  ret ptr %10
}

; Function Attrs: mustprogress nounwind uwtable
define linkonce_odr noundef i64 @_ZNK17double_conversion6Double8AsUint64Ev(ptr noundef nonnull align 8 dereferenceable(8) %0) #3 comdat align 2 {
  %2 = alloca ptr, align 8
  store ptr %0, ptr %2, align 8, !tbaa !28
  %3 = load ptr, ptr %2, align 8
  %4 = getelementptr inbounds nuw %"class.double_conversion::Double", ptr %3, i32 0, i32 0
  %5 = load i64, ptr %4, align 8, !tbaa !30
  ret i64 %5
}

; Function Attrs: mustprogress uwtable
define internal noundef i64 @_ZN17double_conversionL16double_to_uint64Ed(double noundef %0) #0 {
  %2 = alloca double, align 8
  store double %0, ptr %2, align 8, !tbaa !24
  %3 = call noundef i64 @_ZN17double_conversion7BitCastImdEET_RKT0_(ptr noundef nonnull align 8 dereferenceable(8) %2)
  ret i64 %3
}

; Function Attrs: mustprogress nounwind uwtable
define linkonce_odr noundef zeroext i1 @_ZNK17double_conversion6Double5IsNanEv(ptr noundef nonnull align 8 dereferenceable(8) %0) #3 comdat align 2 {
  %2 = alloca ptr, align 8
  %3 = alloca i64, align 8
  store ptr %0, ptr %2, align 8, !tbaa !28
  %4 = load ptr, ptr %2, align 8
  call void @llvm.lifetime.start.p0(i64 8, ptr %3) #2
  %5 = call noundef i64 @_ZNK17double_conversion6Double8AsUint64Ev(ptr noundef nonnull align 8 dereferenceable(8) %4)
  store i64 %5, ptr %3, align 8, !tbaa !33
  %6 = load i64, ptr %3, align 8, !tbaa !33
  %7 = and i64 %6, 9218868437227405312
  %8 = icmp eq i64 %7, 9218868437227405312
  br i1 %8, label %9, label %13

9:                                                ; preds = %1
  %10 = load i64, ptr %3, align 8, !tbaa !33
  %11 = and i64 %10, 4503599627370495
  %12 = icmp ne i64 %11, 0
  br label %13

13:                                               ; preds = %9, %1
  %14 = phi i1 [ false, %1 ], [ %12, %9 ]
  call void @llvm.lifetime.end.p0(i64 8, ptr %3) #2
  ret i1 %14
}

; Function Attrs: mustprogress uwtable
define linkonce_odr void @_ZN17double_conversion13StringBuilder9AddStringEPKc(ptr noundef nonnull align 8 dereferenceable(20) %0, ptr noundef %1) #0 comdat align 2 {
  %3 = alloca ptr, align 8
  %4 = alloca ptr, align 8
  store ptr %0, ptr %3, align 8, !tbaa !26
  store ptr %1, ptr %4, align 8, !tbaa !11
  %5 = load ptr, ptr %3, align 8
  %6 = load ptr, ptr %4, align 8, !tbaa !11
  %7 = load ptr, ptr %4, align 8, !tbaa !11
  %8 = call noundef i32 @_ZN17double_conversion9StrLengthEPKc(ptr noundef %7)
  call void @_ZN17double_conversion13StringBuilder12AddSubstringEPKci(ptr noundef nonnull align 8 dereferenceable(20) %5, ptr noundef %6, i32 noundef %8)
  ret void
}

; Function Attrs: mustprogress uwtable
define linkonce_odr void @_ZN17double_conversion13StringBuilder12AddCharacterEc(ptr noundef nonnull align 8 dereferenceable(20) %0, i8 noundef signext %1) #0 comdat align 2 {
  %3 = alloca ptr, align 8
  %4 = alloca i8, align 1
  store ptr %0, ptr %3, align 8, !tbaa !26
  store i8 %1, ptr %4, align 1, !tbaa !13
  %5 = load ptr, ptr %3, align 8
  %6 = load i8, ptr %4, align 1, !tbaa !13
  %7 = getelementptr inbounds nuw %"class.double_conversion::StringBuilder", ptr %5, i32 0, i32 0
  %8 = getelementptr inbounds nuw %"class.double_conversion::StringBuilder", ptr %5, i32 0, i32 1
  %9 = load i32, ptr %8, align 8, !tbaa !34
  %10 = add nsw i32 %9, 1
  store i32 %10, ptr %8, align 8, !tbaa !34
  %11 = call noundef nonnull align 1 dereferenceable(1) ptr @_ZNK17double_conversion6VectorIcEixEi(ptr noundef nonnull align 8 dereferenceable(12) %7, i32 noundef %9)
  store i8 %6, ptr %11, align 1, !tbaa !13
  ret void
}

; Function Attrs: mustprogress uwtable
define linkonce_odr noundef zeroext i1 @_ZNK17double_conversion6Double10IsInfiniteEv(ptr noundef nonnull align 8 dereferenceable(8) %0) #0 comdat align 2 {
  %2 = alloca ptr, align 8
  %3 = alloca i64, align 8
  store ptr %0, ptr %2, align 8, !tbaa !28
  %4 = load ptr, ptr %2, align 8
  call void @llvm.lifetime.start.p0(i64 8, ptr %3) #2
  %5 = call noundef i64 @_ZNK17double_conversion6Double8AsUint64Ev(ptr noundef nonnull align 8 dereferenceable(8) %4)
  store i64 %5, ptr %3, align 8, !tbaa !33
  %6 = load i64, ptr %3, align 8, !tbaa !33
  %7 = and i64 %6, 9218868437227405312
  %8 = icmp eq i64 %7, 9218868437227405312
  br i1 %8, label %9, label %13

9:                                                ; preds = %1
  %10 = load i64, ptr %3, align 8, !tbaa !33
  %11 = and i64 %10, 4503599627370495
  %12 = icmp eq i64 %11, 0
  br label %13

13:                                               ; preds = %9, %1
  %14 = phi i1 [ false, %1 ], [ %12, %9 ]
  call void @llvm.lifetime.end.p0(i64 8, ptr %3) #2
  ret i1 %14
}

; Function Attrs: mustprogress uwtable
define linkonce_odr void @_ZN17double_conversion6DoubleC2Ed(ptr noundef nonnull align 8 dereferenceable(8) %0, double noundef %1) unnamed_addr #0 comdat align 2 {
  %3 = alloca ptr, align 8
  %4 = alloca double, align 8
  store ptr %0, ptr %3, align 8, !tbaa !28
  store double %1, ptr %4, align 8, !tbaa !24
  %5 = load ptr, ptr %3, align 8
  %6 = getelementptr inbounds nuw %"class.double_conversion::Double", ptr %5, i32 0, i32 0
  %7 = load double, ptr %4, align 8, !tbaa !24
  %8 = call noundef i64 @_ZN17double_conversionL16double_to_uint64Ed(double noundef %7)
  store i64 %8, ptr %6, align 8, !tbaa !30
  ret void
}

; Function Attrs: mustprogress uwtable
define noundef zeroext i1 @_ZNK17double_conversion23DoubleToStringConverter19HandleSpecialValuesEdPNS_13StringBuilderE(ptr noundef nonnull align 8 dereferenceable(48) %0, double noundef %1, ptr noundef %2) #0 align 2 {
  %4 = alloca i1, align 1
  %5 = alloca ptr, align 8
  %6 = alloca double, align 8
  %7 = alloca ptr, align 8
  %8 = alloca %"class.double_conversion::Double", align 8
  %9 = alloca i32, align 4
  store ptr %0, ptr %5, align 8, !tbaa !8
  store double %1, ptr %6, align 8, !tbaa !24
  store ptr %2, ptr %7, align 8, !tbaa !26
  %10 = load ptr, ptr %5, align 8
  call void @llvm.lifetime.start.p0(i64 8, ptr %8) #2
  %11 = load double, ptr %6, align 8, !tbaa !24
  call void @_ZN17double_conversion6DoubleC2Ed(ptr noundef nonnull align 8 dereferenceable(8) %8, double noundef %11)
  %12 = call noundef zeroext i1 @_ZNK17double_conversion6Double10IsInfiniteEv(ptr noundef nonnull align 8 dereferenceable(8) %8)
  br i1 %12, label %13, label %27

13:                                               ; preds = %3
  %14 = getelementptr inbounds nuw %"class.double_conversion::DoubleToStringConverter", ptr %10, i32 0, i32 1
  %15 = load ptr, ptr %14, align 8, !tbaa !16
  %16 = icmp eq ptr %15, null
  br i1 %16, label %17, label %18

17:                                               ; preds = %13
  store i1 false, ptr %4, align 1
  store i32 1, ptr %9, align 4
  br label %39

18:                                               ; preds = %13
  %19 = load double, ptr %6, align 8, !tbaa !24
  %20 = fcmp olt double %19, 0.000000e+00
  br i1 %20, label %21, label %23

21:                                               ; preds = %18
  %22 = load ptr, ptr %7, align 8, !tbaa !26
  call void @_ZN17double_conversion13StringBuilder12AddCharacterEc(ptr noundef nonnull align 8 dereferenceable(20) %22, i8 noundef signext 45)
  br label %23

23:                                               ; preds = %21, %18
  %24 = load ptr, ptr %7, align 8, !tbaa !26
  %25 = getelementptr inbounds nuw %"class.double_conversion::DoubleToStringConverter", ptr %10, i32 0, i32 1
  %26 = load ptr, ptr %25, align 8, !tbaa !16
  call void @_ZN17double_conversion13StringBuilder9AddStringEPKc(ptr noundef nonnull align 8 dereferenceable(20) %24, ptr noundef %26)
  store i1 true, ptr %4, align 1
  store i32 1, ptr %9, align 4
  br label %39

27:                                               ; preds = %3
  %28 = call noundef zeroext i1 @_ZNK17double_conversion6Double5IsNanEv(ptr noundef nonnull align 8 dereferenceable(8) %8)
  br i1 %28, label %29, label %38

29:                                               ; preds = %27
  %30 = getelementptr inbounds nuw %"class.double_conversion::DoubleToStringConverter", ptr %10, i32 0, i32 2
  %31 = load ptr, ptr %30, align 8, !tbaa !17
  %32 = icmp eq ptr %31, null
  br i1 %32, label %33, label %34

33:                                               ; preds = %29
  store i1 false, ptr %4, align 1
  store i32 1, ptr %9, align 4
  br label %39

34:                                               ; preds = %29
  %35 = load ptr, ptr %7, align 8, !tbaa !26
  %36 = getelementptr inbounds nuw %"class.double_conversion::DoubleToStringConverter", ptr %10, i32 0, i32 2
  %37 = load ptr, ptr %36, align 8, !tbaa !17
  call void @_ZN17double_conversion13StringBuilder9AddStringEPKc(ptr noundef nonnull align 8 dereferenceable(20) %35, ptr noundef %37)
  store i1 true, ptr %4, align 1
  store i32 1, ptr %9, align 4
  br label %39

38:                                               ; preds = %27
  store i1 false, ptr %4, align 1
  store i32 1, ptr %9, align 4
  br label %39

39:                                               ; preds = %38, %34, %33, %23, %17
  call void @llvm.lifetime.end.p0(i64 8, ptr %8) #2
  %40 = load i1, ptr %4, align 1
  ret i1 %40
}