; Function Attrs: mustprogress nofree nounwind willreturn memory(readwrite, inaccessiblemem: none) uwtable
define noundef zeroext i1 @_ZNK17double_conversion23DoubleToStringConverter19HandleSpecialValuesEdPNS_13StringBuilderE(ptr noundef nonnull readonly align 8 captures(none) dereferenceable(48) %0, double noundef %1, ptr noundef captures(none) %2) local_unnamed_addr #3 align 2 {
  %4 = tail call double @llvm.fabs.f64(double %1)
  %5 = fcmp oeq double %4, 0x7FF0000000000000
  br i1 %5, label %6, label %19

6:                                                ; preds = %3
  %7 = getelementptr inbounds nuw i8, ptr %0, i64 8
  %8 = load ptr, ptr %7, align 8, !tbaa !11
  %9 = icmp eq ptr %8, null
  br i1 %9, label %34, label %10

10:                                               ; preds = %6
  %11 = fcmp olt double %1, 0.000000e+00
  br i1 %11, label %12, label %.sink.split

12:                                               ; preds = %10
  %13 = getelementptr inbounds nuw i8, ptr %2, i64 16
  %14 = load i32, ptr %13, align 8, !tbaa !19
  %15 = add nsw i32 %14, 1
  store i32 %15, ptr %13, align 8, !tbaa !19
  %16 = load ptr, ptr %2, align 8, !tbaa !22
  %17 = sext i32 %14 to i64
  %18 = getelementptr inbounds i8, ptr %16, i64 %17
  store i8 45, ptr %18, align 1, !tbaa !23
  %.pre = load ptr, ptr %7, align 8, !tbaa !11
  br label %.sink.split

19:                                               ; preds = %3
  %20 = fcmp ord double %1, 0.000000e+00
  %21 = getelementptr inbounds nuw i8, ptr %0, i64 16
  %22 = load ptr, ptr %21, align 8
  %23 = icmp eq ptr %22, null
  %or.cond = select i1 %20, i1 true, i1 %23
  br i1 %or.cond, label %34, label %.sink.split

.sink.split:                                      ; preds = %19, %10, %12
  %.sink21 = phi ptr [ %.pre, %12 ], [ %8, %10 ], [ %22, %19 ]
  %24 = tail call i64 @strlen(ptr noundef nonnull dereferenceable(1) %.sink21) #14
  %25 = trunc i64 %24 to i32
  %26 = getelementptr inbounds nuw i8, ptr %2, i64 16
  %27 = load i32, ptr %26, align 8, !tbaa !19
  %28 = load ptr, ptr %2, align 8, !tbaa !22
  %29 = sext i32 %27 to i64
  %30 = getelementptr inbounds i8, ptr %28, i64 %29
  %sext.i8 = shl i64 %24, 32
  %31 = ashr exact i64 %sext.i8, 32
  tail call void @llvm.memmove.p0.p0.i64(ptr nonnull align 1 %30, ptr nonnull align 1 %.sink21, i64 %31, i1 false)
  %32 = load i32, ptr %26, align 8, !tbaa !19
  %33 = add nsw i32 %32, %25
  store i32 %33, ptr %26, align 8, !tbaa !19
  br label %34

34:                                               ; preds = %.sink.split, %19, %6
  %.0 = phi i1 [ false, %6 ], [ false, %19 ], [ true, %.sink.split ]
  ret i1 %.0
}